target datalayout = "e-m:e-p270:32:32-p271:32:32-p272:64:64-i64:64-i128:128-f80:128-n8:16:32:64-S128"
target triple = "x86_64-pc-linux-gnu"

%"class.llvm::MemoryBufferRef" = type { %"class.llvm::StringRef", %"class.llvm::StringRef" }
%"class.llvm::StringRef" = type { ptr, i64 }
%"struct.llvm::NewArchiveMember" = type <{ %"class.std::unique_ptr", %"class.llvm::StringRef", %"class.std::chrono::time_point", i32, i32, i32, [4 x i8] }>
%"class.std::unique_ptr" = type { %"struct.std::__uniq_ptr_data" }
%"struct.std::__uniq_ptr_data" = type { %"class.std::__uniq_ptr_impl" }
%"class.std::__uniq_ptr_impl" = type { %"class.std::tuple" }
%"class.std::tuple" = type { %"struct.std::_Tuple_impl" }
%"struct.std::_Tuple_impl" = type { %"struct.std::_Head_base.1" }
%"struct.std::_Head_base.1" = type { ptr }
%"class.std::chrono::time_point" = type { %"class.std::chrono::duration" }
%"class.std::chrono::duration" = type { i64 }

; Function Attrs: mustprogress nounwind uwtable
define linkonce_odr hidden void @_ZNSt6chrono8durationIlSt5ratioILl1ELl1EEEC2IlvEERKT_(ptr noundef nonnull align 8 dereferenceable(8) %0, ptr noundef nonnull align 8 dereferenceable(8) %1) unnamed_addr #0 comdat align 2 {
  %3 = alloca ptr, align 8
  %4 = alloca ptr, align 8
  store ptr %0, ptr %3, align 8
  store ptr %1, ptr %4, align 8
  %5 = load ptr, ptr %3, align 8
  %6 = getelementptr inbounds nuw %"class.std::chrono::duration", ptr %5, i32 0, i32 0
  %7 = load ptr, ptr %4, align 8
  %8 = load i64, ptr %7, align 8
  store i64 %8, ptr %6, align 8
  ret void
}

; Function Attrs: mustprogress nounwind uwtable
define linkonce_odr hidden noundef i64 @_ZNSt6chrono15duration_valuesIlE4zeroEv() #0 comdat align 2 {
  ret i64 0
}

; Function Attrs: mustprogress nounwind uwtable
define linkonce_odr hidden i64 @_ZNSt6chrono8durationIlSt5ratioILl1ELl1EEE4zeroEv() #0 comdat align 2 {
  %1 = alloca %"class.std::chrono::duration", align 8
  %2 = alloca i64, align 8
  %3 = call noundef i64 @_ZNSt6chrono15duration_valuesIlE4zeroEv() #13
  store i64 %3, ptr %2, align 8
  call void @_ZNSt6chrono8durationIlSt5ratioILl1ELl1EEEC2IlvEERKT_(ptr noundef nonnull align 8 dereferenceable(8) %1, ptr noundef nonnull align 8 dereferenceable(8) %2)
  %4 = getelementptr inbounds nuw %"class.std::chrono::duration", ptr %1, i32 0, i32 0
  %5 = load i64, ptr %4, align 8
  ret i64 %5
}

; Function Attrs: mustprogress nounwind uwtable
define linkonce_odr hidden void @_ZNSt6chrono10time_pointINS_3_V212system_clockENS_8durationIlSt5ratioILl1ELl1EEEEEC2Ev(ptr noundef nonnull align 8 dereferenceable(8) %0) unnamed_addr #0 comdat align 2 {
  %2 = alloca ptr, align 8
  store ptr %0, ptr %2, align 8
  %3 = load ptr, ptr %2, align 8
  %4 = getelementptr inbounds nuw %"class.std::chrono::time_point", ptr %3, i32 0, i32 0
  %5 = call i64 @_ZNSt6chrono8durationIlSt5ratioILl1ELl1EEE4zeroEv() #13
  %6 = getelementptr inbounds nuw %"class.std::chrono::duration", ptr %4, i32 0, i32 0
  store i64 %5, ptr %6, align 8
  ret void
}

; Function Attrs: mustprogress nounwind uwtable
define linkonce_odr hidden { ptr, i64 } @_ZNK4llvm15MemoryBufferRef19getBufferIdentifierEv(ptr noundef nonnull align 8 dereferenceable(32) %0) #0 comdat align 2 {
  %2 = alloca %"class.llvm::StringRef", align 8
  %3 = alloca ptr, align 8
  store ptr %0, ptr %3, align 8
  %4 = load ptr, ptr %3, align 8
  %5 = getelementptr inbounds nuw %"class.llvm::MemoryBufferRef", ptr %4, i32 0, i32 1
  call void @llvm.memcpy.p0.p0.i64(ptr align 8 %2, ptr align 8 %5, i64 16, i1 false)
  %6 = load { ptr, i64 }, ptr %2, align 8
  ret { ptr, i64 } %6
}

; Function Attrs: mustprogress nounwind uwtable
define dso_local void @_ZN4llvm16NewArchiveMemberC2ENS_15MemoryBufferRefE(ptr noundef nonnull align 8 dereferenceable(44) %0, ptr noundef byval(%"class.llvm::MemoryBufferRef") align 8 %1) unnamed_addr #0 align 2 {
  %3 = alloca ptr, align 8
  %4 = alloca %"class.llvm::MemoryBufferRef", align 8
  store ptr %0, ptr %3, align 8
  %5 = load ptr, ptr %3, align 8
  %6 = getelementptr inbounds nuw %"struct.llvm::NewArchiveMember", ptr %5, i32 0, i32 0
  call void @llvm.memcpy.p0.p0.i64(ptr align 8 %4, ptr align 8 %1, i64 32, i1 false)
  call void @_ZN4llvm12MemoryBuffer12getMemBufferENS_15MemoryBufferRefEb(ptr dead_on_unwind writable sret(%"class.std::unique_ptr") align 8 %6, ptr noundef byval(%"class.llvm::MemoryBufferRef") align 8 %4, i1 noundef zeroext false)
  %7 = getelementptr inbounds nuw %"struct.llvm::NewArchiveMember", ptr %5, i32 0, i32 1
  %8 = call { ptr, i64 } @_ZNK4llvm15MemoryBufferRef19getBufferIdentifierEv(ptr noundef nonnull align 8 dereferenceable(32) %1)
  %9 = getelementptr inbounds nuw { ptr, i64 }, ptr %7, i32 0, i32 0
  %10 = extractvalue { ptr, i64 } %8, 0
  store ptr %10, ptr %9, align 8
  %11 = getelementptr inbounds nuw { ptr, i64 }, ptr %7, i32 0, i32 1
  %12 = extractvalue { ptr, i64 } %8, 1
  store i64 %12, ptr %11, align 8
  %13 = getelementptr inbounds nuw %"struct.llvm::NewArchiveMember", ptr %5, i32 0, i32 2
  call void @_ZNSt6chrono10time_pointINS_3_V212system_clockENS_8durationIlSt5ratioILl1ELl1EEEEEC2Ev(ptr noundef nonnull align 8 dereferenceable(8) %13)
  %14 = getelementptr inbounds nuw %"struct.llvm::NewArchiveMember", ptr %5, i32 0, i32 3
  store i32 0, ptr %14, align 8
  %15 = getelementptr inbounds nuw %"struct.llvm::NewArchiveMember", ptr %5, i32 0, i32 4
  store i32 0, ptr %15, align 4
  %16 = getelementptr inbounds nuw %"struct.llvm::NewArchiveMember", ptr %5, i32 0, i32 5
  store i32 420, ptr %16, align 8
  ret void
}