; Function Attrs: mustprogress nounwind uwtable
define dso_local void @_ZN4llvm16NewArchiveMemberC2ENS_15MemoryBufferRefE(ptr noundef nonnull align 8 dereferenceable(44) %0, ptr noundef readonly byval(%"class.llvm::MemoryBufferRef") align 8 captures(none) %1) unnamed_addr #0 align 2 {
  tail call void @_ZN4llvm12MemoryBuffer12getMemBufferENS_15MemoryBufferRefEb(ptr dead_on_unwind nonnull writable sret(%"class.std::unique_ptr") align 8 %0, ptr noundef nonnull byval(%"class.llvm::MemoryBufferRef") align 8 %1, i1 noundef zeroext false) #21
  %3 = getelementptr inbounds nuw i8, ptr %0, i64 8
  %4 = getelementptr inbounds nuw i8, ptr %1, i64 16
  %.sroa.0.0.copyload.i = load ptr, ptr %4, align 8
  %.sroa.2.0..sroa_idx.i = getelementptr inbounds nuw i8, ptr %1, i64 24
  %.sroa.2.0.copyload.i = load i64, ptr %.sroa.2.0..sroa_idx.i, align 8
  store ptr %.sroa.0.0.copyload.i, ptr %3, align 8
  %5 = getelementptr inbounds nuw i8, ptr %0, i64 16
  store i64 %.sroa.2.0.copyload.i, ptr %5, align 8
  %6 = getelementptr inbounds nuw i8, ptr %0, i64 24
  %7 = getelementptr inbounds nuw i8, ptr %0, i64 40
  tail call void @llvm.memset.p0.i64(ptr noundef nonnull align 8 dereferenceable(16) %6, i8 0, i64 16, i1 false)
  store i32 420, ptr %7, align 8
  ret void
}